; Function Attrs: mustprogress uwtable
define internal void @"_ZNSt17_Function_handlerIFvN5folly5RangeIPKcEES4_EZZNK8proxygen11HTTPMessage12parseCookiesEvENK3$_0clERKNSt7__cxx1112basic_stringIcSt11char_traitsIcESaIcEEEEUlS4_S4_E_E9_M_invokeERKSt9_Any_dataOS4_SM_"(ptr nocapture noundef nonnull readonly align 8 dereferenceable(16) %__functor, ptr nocapture noundef nonnull readonly align 8 dereferenceable(16) %__args, ptr nocapture noundef nonnull readonly align 8 dereferenceable(16) %__args1) #2 align 2 {
entry:
  %cookieName.i.i.i = alloca %"class.folly::Range", align 16
  %cookieValue.i.i.i = alloca %"class.folly::Range", align 16
  %call.val = load ptr, ptr %__functor, align 8
  call void @llvm.lifetime.start.p0(i64 16, ptr nonnull %cookieName.i.i.i)
  call void @llvm.lifetime.start.p0(i64 16, ptr nonnull %cookieValue.i.i.i)
  %0 = load <2 x ptr>, ptr %__args, align 8
  store <2 x ptr> %0, ptr %cookieName.i.i.i, align 16
  %1 = load <2 x ptr>, ptr %__args1, align 8
  store <2 x ptr> %1, ptr %cookieValue.i.i.i, align 16
  %cookies_.i.i.i = getelementptr inbounds i8, ptr %call.val, i64 384
  %call.i.i.i = call { ptr, i8 } @_ZNSt3mapIN5folly5RangeIPKcEES4_St4lessIS4_ESaISt4pairIKS4_S4_EEE7emplaceIJRS4_SD_EEES7_ISt17_Rb_tree_iteratorIS9_EbEDpOT_(ptr noundef nonnull align 8 dereferenceable(48) %cookies_.i.i.i, ptr noundef nonnull align 8 dereferenceable(16) %cookieName.i.i.i, ptr noundef nonnull align 8 dereferenceable(16) %cookieValue.i.i.i)
  call void @llvm.lifetime.end.p0(i64 16, ptr nonnull %cookieName.i.i.i)
  call void @llvm.lifetime.end.p0(i64 16, ptr nonnull %cookieValue.i.i.i)
  ret void
}